MPLINK 5.09, LINKER
Linker Map File - Created Sat Nov 06 22:32:07 2021

                                 Section Info
                  Section       Type    Address   Location Size(Bytes)
                ---------  ---------  ---------  ---------  ---------
                 RES_VECT       code   0x000000    program   0x000002
                   .cinit    romdata   0x000001    program   0x000004
                MAIN_PROG       code   0x000003    program   0x0007b0
.config_2007_BUILD/DEFAULT/PRODUCTION/MICROSE       code   0x002007    program   0x000002
.config_2008_BUILD/DEFAULT/PRODUCTION/MICROSE       code   0x002008    program   0x000002



                              Program Memory Usage 
                               Start         End      
                           ---------   ---------      
                            0x000000    0x0003da      
                            0x002007    0x002008      
            989 out of 8455 program addresses used, program memory utilization is 11%



                              Symbols - Sorted by Name
                     Name    Address   Location    Storage File                     
                ---------  ---------  ---------  --------- ---------                
               BIENVENIDA   0x00000f    program     static C:\Users\rober\MPLABXProjects\microsexamen2.X\microsexamen21.asm
                   DELAY1   0x0003bc    program     static C:\Users\rober\MPLABXProjects\microsexamen2.X\microsexamen21.asm
                  DISPLAY   0x0003b5    program     static C:\Users\rober\MPLABXProjects\microsexamen2.X\microsexamen21.asm
                    EIGHT   0x00014b    program     static C:\Users\rober\MPLABXProjects\microsexamen2.X\microsexamen21.asm
                   EIGHT2   0x00019a    program     static C:\Users\rober\MPLABXProjects\microsexamen2.X\microsexamen21.asm
                   EIGHT3   0x0001e9    program     static C:\Users\rober\MPLABXProjects\microsexamen2.X\microsexamen21.asm
                   EIGHT4   0x000238    program     static C:\Users\rober\MPLABXProjects\microsexamen2.X\microsexamen21.asm
                   EIGHT5   0x000287    program     static C:\Users\rober\MPLABXProjects\microsexamen2.X\microsexamen21.asm
                   EIGHT6   0x0002d6    program     static C:\Users\rober\MPLABXProjects\microsexamen2.X\microsexamen21.asm
                   EIGHT7   0x000325    program     static C:\Users\rober\MPLABXProjects\microsexamen2.X\microsexamen21.asm
                   EIGHT8   0x000374    program     static C:\Users\rober\MPLABXProjects\microsexamen2.X\microsexamen21.asm
                     FIVE   0x00013c    program     static C:\Users\rober\MPLABXProjects\microsexamen2.X\microsexamen21.asm
                    FIVE2   0x00018b    program     static C:\Users\rober\MPLABXProjects\microsexamen2.X\microsexamen21.asm
                    FIVE3   0x0001da    program     static C:\Users\rober\MPLABXProjects\microsexamen2.X\microsexamen21.asm
                    FIVE4   0x000229    program     static C:\Users\rober\MPLABXProjects\microsexamen2.X\microsexamen21.asm
                    FIVE5   0x000278    program     static C:\Users\rober\MPLABXProjects\microsexamen2.X\microsexamen21.asm
                    FIVE6   0x0002c7    program     static C:\Users\rober\MPLABXProjects\microsexamen2.X\microsexamen21.asm
                    FIVE7   0x000316    program     static C:\Users\rober\MPLABXProjects\microsexamen2.X\microsexamen21.asm
                    FIVE8   0x000365    program     static C:\Users\rober\MPLABXProjects\microsexamen2.X\microsexamen21.asm
                     FOUR   0x000137    program     static C:\Users\rober\MPLABXProjects\microsexamen2.X\microsexamen21.asm
                    FOUR2   0x000186    program     static C:\Users\rober\MPLABXProjects\microsexamen2.X\microsexamen21.asm
                    FOUR3   0x0001d5    program     static C:\Users\rober\MPLABXProjects\microsexamen2.X\microsexamen21.asm
                    FOUR4   0x000224    program     static C:\Users\rober\MPLABXProjects\microsexamen2.X\microsexamen21.asm
                    FOUR5   0x000273    program     static C:\Users\rober\MPLABXProjects\microsexamen2.X\microsexamen21.asm
                    FOUR6   0x0002c2    program     static C:\Users\rober\MPLABXProjects\microsexamen2.X\microsexamen21.asm
                    FOUR7   0x000311    program     static C:\Users\rober\MPLABXProjects\microsexamen2.X\microsexamen21.asm
                    FOUR8   0x000360    program     static C:\Users\rober\MPLABXProjects\microsexamen2.X\microsexamen21.asm
                 LCDRESET   0x00037e    program     static C:\Users\rober\MPLABXProjects\microsexamen2.X\microsexamen21.asm
                     LOOP   0x0003c0    program     static C:\Users\rober\MPLABXProjects\microsexamen2.X\microsexamen21.asm
                     NINE   0x000150    program     static C:\Users\rober\MPLABXProjects\microsexamen2.X\microsexamen21.asm
                    NINE2   0x00019f    program     static C:\Users\rober\MPLABXProjects\microsexamen2.X\microsexamen21.asm
                    NINE3   0x0001ee    program     static C:\Users\rober\MPLABXProjects\microsexamen2.X\microsexamen21.asm
                    NINE4   0x00023d    program     static C:\Users\rober\MPLABXProjects\microsexamen2.X\microsexamen21.asm
                    NINE5   0x00028c    program     static C:\Users\rober\MPLABXProjects\microsexamen2.X\microsexamen21.asm
                    NINE6   0x0002db    program     static C:\Users\rober\MPLABXProjects\microsexamen2.X\microsexamen21.asm
                    NINE7   0x00032a    program     static C:\Users\rober\MPLABXProjects\microsexamen2.X\microsexamen21.asm
                    NINE8   0x000379    program     static C:\Users\rober\MPLABXProjects\microsexamen2.X\microsexamen21.asm
                       ON   0x000384    program     static C:\Users\rober\MPLABXProjects\microsexamen2.X\microsexamen21.asm
                      ONE   0x000128    program     static C:\Users\rober\MPLABXProjects\microsexamen2.X\microsexamen21.asm
                     ONE2   0x000177    program     static C:\Users\rober\MPLABXProjects\microsexamen2.X\microsexamen21.asm
                     ONE3   0x0001c6    program     static C:\Users\rober\MPLABXProjects\microsexamen2.X\microsexamen21.asm
                     ONE4   0x000215    program     static C:\Users\rober\MPLABXProjects\microsexamen2.X\microsexamen21.asm
                     ONE5   0x000264    program     static C:\Users\rober\MPLABXProjects\microsexamen2.X\microsexamen21.asm
                     ONE6   0x0002b3    program     static C:\Users\rober\MPLABXProjects\microsexamen2.X\microsexamen21.asm
                     ONE7   0x000302    program     static C:\Users\rober\MPLABXProjects\microsexamen2.X\microsexamen21.asm
                     ONE8   0x000351    program     static C:\Users\rober\MPLABXProjects\microsexamen2.X\microsexamen21.asm
               REMISEZERO   0x000399    program     static C:\Users\rober\MPLABXProjects\microsexamen2.X\microsexamen21.asm
                    SEVEN   0x000146    program     static C:\Users\rober\MPLABXProjects\microsexamen2.X\microsexamen21.asm
                   SEVEN2   0x000195    program     static C:\Users\rober\MPLABXProjects\microsexamen2.X\microsexamen21.asm
                   SEVEN3   0x0001e4    program     static C:\Users\rober\MPLABXProjects\microsexamen2.X\microsexamen21.asm
                   SEVEN4   0x000233    program     static C:\Users\rober\MPLABXProjects\microsexamen2.X\microsexamen21.asm
                   SEVEN5   0x000282    program     static C:\Users\rober\MPLABXProjects\microsexamen2.X\microsexamen21.asm
                   SEVEN6   0x0002d1    program     static C:\Users\rober\MPLABXProjects\microsexamen2.X\microsexamen21.asm
                   SEVEN7   0x000320    program     static C:\Users\rober\MPLABXProjects\microsexamen2.X\microsexamen21.asm
                   SEVEN8   0x00036f    program     static C:\Users\rober\MPLABXProjects\microsexamen2.X\microsexamen21.asm
                      SIX   0x000141    program     static C:\Users\rober\MPLABXProjects\microsexamen2.X\microsexamen21.asm
                     SIX2   0x000190    program     static C:\Users\rober\MPLABXProjects\microsexamen2.X\microsexamen21.asm
                     SIX3   0x0001df    program     static C:\Users\rober\MPLABXProjects\microsexamen2.X\microsexamen21.asm
                     SIX4   0x00022e    program     static C:\Users\rober\MPLABXProjects\microsexamen2.X\microsexamen21.asm
                     SIX5   0x00027d    program     static C:\Users\rober\MPLABXProjects\microsexamen2.X\microsexamen21.asm
                     SIX6   0x0002cc    program     static C:\Users\rober\MPLABXProjects\microsexamen2.X\microsexamen21.asm
                     SIX7   0x00031b    program     static C:\Users\rober\MPLABXProjects\microsexamen2.X\microsexamen21.asm
                     SIX8   0x00036a    program     static C:\Users\rober\MPLABXProjects\microsexamen2.X\microsexamen21.asm
                    START   0x000003    program     static C:\Users\rober\MPLABXProjects\microsexamen2.X\microsexamen21.asm
                    THREE   0x000132    program     static C:\Users\rober\MPLABXProjects\microsexamen2.X\microsexamen21.asm
                   THREE2   0x000181    program     static C:\Users\rober\MPLABXProjects\microsexamen2.X\microsexamen21.asm
                   THREE3   0x0001d0    program     static C:\Users\rober\MPLABXProjects\microsexamen2.X\microsexamen21.asm
                   THREE4   0x00021f    program     static C:\Users\rober\MPLABXProjects\microsexamen2.X\microsexamen21.asm
                   THREE5   0x00026e    program     static C:\Users\rober\MPLABXProjects\microsexamen2.X\microsexamen21.asm
                   THREE6   0x0002bd    program     static C:\Users\rober\MPLABXProjects\microsexamen2.X\microsexamen21.asm
                   THREE7   0x00030c    program     static C:\Users\rober\MPLABXProjects\microsexamen2.X\microsexamen21.asm
                   THREE8   0x00035b    program     static C:\Users\rober\MPLABXProjects\microsexamen2.X\microsexamen21.asm
                      TWO   0x00012d    program     static C:\Users\rober\MPLABXProjects\microsexamen2.X\microsexamen21.asm
                     TWO2   0x00017c    program     static C:\Users\rober\MPLABXProjects\microsexamen2.X\microsexamen21.asm
                     TWO3   0x0001cb    program     static C:\Users\rober\MPLABXProjects\microsexamen2.X\microsexamen21.asm
                     TWO4   0x00021a    program     static C:\Users\rober\MPLABXProjects\microsexamen2.X\microsexamen21.asm
                     TWO5   0x000269    program     static C:\Users\rober\MPLABXProjects\microsexamen2.X\microsexamen21.asm
                     TWO6   0x0002b8    program     static C:\Users\rober\MPLABXProjects\microsexamen2.X\microsexamen21.asm
                     TWO7   0x000307    program     static C:\Users\rober\MPLABXProjects\microsexamen2.X\microsexamen21.asm
                     TWO8   0x000356    program     static C:\Users\rober\MPLABXProjects\microsexamen2.X\microsexamen21.asm
                     ZERO   0x000123    program     static C:\Users\rober\MPLABXProjects\microsexamen2.X\microsexamen21.asm
                    ZERO2   0x000172    program     static C:\Users\rober\MPLABXProjects\microsexamen2.X\microsexamen21.asm
                    ZERO3   0x0001c1    program     static C:\Users\rober\MPLABXProjects\microsexamen2.X\microsexamen21.asm
                    ZERO4   0x000210    program     static C:\Users\rober\MPLABXProjects\microsexamen2.X\microsexamen21.asm
                    ZERO5   0x00025f    program     static C:\Users\rober\MPLABXProjects\microsexamen2.X\microsexamen21.asm
                    ZERO6   0x0002ae    program     static C:\Users\rober\MPLABXProjects\microsexamen2.X\microsexamen21.asm
                    ZERO7   0x0002fd    program     static C:\Users\rober\MPLABXProjects\microsexamen2.X\microsexamen21.asm
                    ZERO8   0x00034c    program     static C:\Users\rober\MPLABXProjects\microsexamen2.X\microsexamen21.asm
          _MAIN_PROG_00AE   0x0000b1    program     static C:\Users\rober\MPLABXProjects\microsexamen2.X\microsexamen21.asm
          _MAIN_PROG_00B3   0x0000b6    program     static C:\Users\rober\MPLABXProjects\microsexamen2.X\microsexamen21.asm
          _MAIN_PROG_00B8   0x0000bb    program     static C:\Users\rober\MPLABXProjects\microsexamen2.X\microsexamen21.asm
          _MAIN_PROG_00BD   0x0000c0    program     static C:\Users\rober\MPLABXProjects\microsexamen2.X\microsexamen21.asm
          _MAIN_PROG_00C2   0x0000c5    program     static C:\Users\rober\MPLABXProjects\microsexamen2.X\microsexamen21.asm
          _MAIN_PROG_00C7   0x0000ca    program     static C:\Users\rober\MPLABXProjects\microsexamen2.X\microsexamen21.asm
          _MAIN_PROG_00CC   0x0000cf    program     static C:\Users\rober\MPLABXProjects\microsexamen2.X\microsexamen21.asm
          _MAIN_PROG_00E8   0x0000eb    program     static C:\Users\rober\MPLABXProjects\microsexamen2.X\microsexamen21.asm
          _MAIN_PROG_0102   0x000105    program     static C:\Users\rober\MPLABXProjects\microsexamen2.X\microsexamen21.asm
                    begin   0x000076    program     static C:\Users\rober\MPLABXProjects\microsexamen2.X\microsexamen21.asm
             check_keypad   0x000106    program     static C:\Users\rober\MPLABXProjects\microsexamen2.X\microsexamen21.asm
            check_keypad2   0x000155    program     static C:\Users\rober\MPLABXProjects\microsexamen2.X\microsexamen21.asm
            check_keypad3   0x0001a4    program     static C:\Users\rober\MPLABXProjects\microsexamen2.X\microsexamen21.asm
            check_keypad4   0x0001f3    program     static C:\Users\rober\MPLABXProjects\microsexamen2.X\microsexamen21.asm
            check_keypad5   0x000242    program     static C:\Users\rober\MPLABXProjects\microsexamen2.X\microsexamen21.asm
            check_keypad6   0x000291    program     static C:\Users\rober\MPLABXProjects\microsexamen2.X\microsexamen21.asm
            check_keypad7   0x0002e0    program     static C:\Users\rober\MPLABXProjects\microsexamen2.X\microsexamen21.asm
            check_keypad8   0x00032f    program     static C:\Users\rober\MPLABXProjects\microsexamen2.X\microsexamen21.asm
                cinquieme   0x000092    program     static C:\Users\rober\MPLABXProjects\microsexamen2.X\microsexamen21.asm
                 deuxieme   0x00007d    program     static C:\Users\rober\MPLABXProjects\microsexamen2.X\microsexamen21.asm
            display_digit   0x0003ab    program     static C:\Users\rober\MPLABXProjects\microsexamen2.X\microsexamen21.asm
                     faux   0x0000ec    program     static C:\Users\rober\MPLABXProjects\microsexamen2.X\microsexamen21.asm
                 huitieme   0x0000a7    program     static C:\Users\rober\MPLABXProjects\microsexamen2.X\microsexamen21.asm
               iloopcorto   0x0003ce    program     static C:\Users\rober\MPLABXProjects\microsexamen2.X\microsexamen21.asm
               jloopcorto   0x0003d1    program     static C:\Users\rober\MPLABXProjects\microsexamen2.X\microsexamen21.asm
               kloopcorto   0x0003d3    program     static C:\Users\rober\MPLABXProjects\microsexamen2.X\microsexamen21.asm
               mloopcorto   0x0003ca    program     static C:\Users\rober\MPLABXProjects\microsexamen2.X\microsexamen21.asm
                  premier   0x000076    program     static C:\Users\rober\MPLABXProjects\microsexamen2.X\microsexamen21.asm
                quatrieme   0x00008b    program     static C:\Users\rober\MPLABXProjects\microsexamen2.X\microsexamen21.asm
                  segundo   0x0003c7    program     static C:\Users\rober\MPLABXProjects\microsexamen2.X\microsexamen21.asm
                 septieme   0x0000a0    program     static C:\Users\rober\MPLABXProjects\microsexamen2.X\microsexamen21.asm
                  sixieme   0x000099    program     static C:\Users\rober\MPLABXProjects\microsexamen2.X\microsexamen21.asm
                   succes   0x0000d6    program     static C:\Users\rober\MPLABXProjects\microsexamen2.X\microsexamen21.asm
                     test   0x000034    program     static C:\Users\rober\MPLABXProjects\microsexamen2.X\microsexamen21.asm
                troisieme   0x000084    program     static C:\Users\rober\MPLABXProjects\microsexamen2.X\microsexamen21.asm



                              Symbols - Sorted by Address
                     Name    Address   Location    Storage File                     
                ---------  ---------  ---------  --------- ---------                
                    START   0x000003    program     static C:\Users\rober\MPLABXProjects\microsexamen2.X\microsexamen21.asm
               BIENVENIDA   0x00000f    program     static C:\Users\rober\MPLABXProjects\microsexamen2.X\microsexamen21.asm
                     test   0x000034    program     static C:\Users\rober\MPLABXProjects\microsexamen2.X\microsexamen21.asm
                  premier   0x000076    program     static C:\Users\rober\MPLABXProjects\microsexamen2.X\microsexamen21.asm
                    begin   0x000076    program     static C:\Users\rober\MPLABXProjects\microsexamen2.X\microsexamen21.asm
                 deuxieme   0x00007d    program     static C:\Users\rober\MPLABXProjects\microsexamen2.X\microsexamen21.asm
                troisieme   0x000084    program     static C:\Users\rober\MPLABXProjects\microsexamen2.X\microsexamen21.asm
                quatrieme   0x00008b    program     static C:\Users\rober\MPLABXProjects\microsexamen2.X\microsexamen21.asm
                cinquieme   0x000092    program     static C:\Users\rober\MPLABXProjects\microsexamen2.X\microsexamen21.asm
                  sixieme   0x000099    program     static C:\Users\rober\MPLABXProjects\microsexamen2.X\microsexamen21.asm
                 septieme   0x0000a0    program     static C:\Users\rober\MPLABXProjects\microsexamen2.X\microsexamen21.asm
                 huitieme   0x0000a7    program     static C:\Users\rober\MPLABXProjects\microsexamen2.X\microsexamen21.asm
          _MAIN_PROG_00AE   0x0000b1    program     static C:\Users\rober\MPLABXProjects\microsexamen2.X\microsexamen21.asm
          _MAIN_PROG_00B3   0x0000b6    program     static C:\Users\rober\MPLABXProjects\microsexamen2.X\microsexamen21.asm
          _MAIN_PROG_00B8   0x0000bb    program     static C:\Users\rober\MPLABXProjects\microsexamen2.X\microsexamen21.asm
          _MAIN_PROG_00BD   0x0000c0    program     static C:\Users\rober\MPLABXProjects\microsexamen2.X\microsexamen21.asm
          _MAIN_PROG_00C2   0x0000c5    program     static C:\Users\rober\MPLABXProjects\microsexamen2.X\microsexamen21.asm
          _MAIN_PROG_00C7   0x0000ca    program     static C:\Users\rober\MPLABXProjects\microsexamen2.X\microsexamen21.asm
          _MAIN_PROG_00CC   0x0000cf    program     static C:\Users\rober\MPLABXProjects\microsexamen2.X\microsexamen21.asm
                   succes   0x0000d6    program     static C:\Users\rober\MPLABXProjects\microsexamen2.X\microsexamen21.asm
          _MAIN_PROG_00E8   0x0000eb    program     static C:\Users\rober\MPLABXProjects\microsexamen2.X\microsexamen21.asm
                     faux   0x0000ec    program     static C:\Users\rober\MPLABXProjects\microsexamen2.X\microsexamen21.asm
          _MAIN_PROG_0102   0x000105    program     static C:\Users\rober\MPLABXProjects\microsexamen2.X\microsexamen21.asm
             check_keypad   0x000106    program     static C:\Users\rober\MPLABXProjects\microsexamen2.X\microsexamen21.asm
                     ZERO   0x000123    program     static C:\Users\rober\MPLABXProjects\microsexamen2.X\microsexamen21.asm
                      ONE   0x000128    program     static C:\Users\rober\MPLABXProjects\microsexamen2.X\microsexamen21.asm
                      TWO   0x00012d    program     static C:\Users\rober\MPLABXProjects\microsexamen2.X\microsexamen21.asm
                    THREE   0x000132    program     static C:\Users\rober\MPLABXProjects\microsexamen2.X\microsexamen21.asm
                     FOUR   0x000137    program     static C:\Users\rober\MPLABXProjects\microsexamen2.X\microsexamen21.asm
                     FIVE   0x00013c    program     static C:\Users\rober\MPLABXProjects\microsexamen2.X\microsexamen21.asm
                      SIX   0x000141    program     static C:\Users\rober\MPLABXProjects\microsexamen2.X\microsexamen21.asm
                    SEVEN   0x000146    program     static C:\Users\rober\MPLABXProjects\microsexamen2.X\microsexamen21.asm
                    EIGHT   0x00014b    program     static C:\Users\rober\MPLABXProjects\microsexamen2.X\microsexamen21.asm
                     NINE   0x000150    program     static C:\Users\rober\MPLABXProjects\microsexamen2.X\microsexamen21.asm
            check_keypad2   0x000155    program     static C:\Users\rober\MPLABXProjects\microsexamen2.X\microsexamen21.asm
                    ZERO2   0x000172    program     static C:\Users\rober\MPLABXProjects\microsexamen2.X\microsexamen21.asm
                     ONE2   0x000177    program     static C:\Users\rober\MPLABXProjects\microsexamen2.X\microsexamen21.asm
                     TWO2   0x00017c    program     static C:\Users\rober\MPLABXProjects\microsexamen2.X\microsexamen21.asm
                   THREE2   0x000181    program     static C:\Users\rober\MPLABXProjects\microsexamen2.X\microsexamen21.asm
                    FOUR2   0x000186    program     static C:\Users\rober\MPLABXProjects\microsexamen2.X\microsexamen21.asm
                    FIVE2   0x00018b    program     static C:\Users\rober\MPLABXProjects\microsexamen2.X\microsexamen21.asm
                     SIX2   0x000190    program     static C:\Users\rober\MPLABXProjects\microsexamen2.X\microsexamen21.asm
                   SEVEN2   0x000195    program     static C:\Users\rober\MPLABXProjects\microsexamen2.X\microsexamen21.asm
                   EIGHT2   0x00019a    program     static C:\Users\rober\MPLABXProjects\microsexamen2.X\microsexamen21.asm
                    NINE2   0x00019f    program     static C:\Users\rober\MPLABXProjects\microsexamen2.X\microsexamen21.asm
            check_keypad3   0x0001a4    program     static C:\Users\rober\MPLABXProjects\microsexamen2.X\microsexamen21.asm
                    ZERO3   0x0001c1    program     static C:\Users\rober\MPLABXProjects\microsexamen2.X\microsexamen21.asm
                     ONE3   0x0001c6    program     static C:\Users\rober\MPLABXProjects\microsexamen2.X\microsexamen21.asm
                     TWO3   0x0001cb    program     static C:\Users\rober\MPLABXProjects\microsexamen2.X\microsexamen21.asm
                   THREE3   0x0001d0    program     static C:\Users\rober\MPLABXProjects\microsexamen2.X\microsexamen21.asm
                    FOUR3   0x0001d5    program     static C:\Users\rober\MPLABXProjects\microsexamen2.X\microsexamen21.asm
                    FIVE3   0x0001da    program     static C:\Users\rober\MPLABXProjects\microsexamen2.X\microsexamen21.asm
                     SIX3   0x0001df    program     static C:\Users\rober\MPLABXProjects\microsexamen2.X\microsexamen21.asm
                   SEVEN3   0x0001e4    program     static C:\Users\rober\MPLABXProjects\microsexamen2.X\microsexamen21.asm
                   EIGHT3   0x0001e9    program     static C:\Users\rober\MPLABXProjects\microsexamen2.X\microsexamen21.asm
                    NINE3   0x0001ee    program     static C:\Users\rober\MPLABXProjects\microsexamen2.X\microsexamen21.asm
            check_keypad4   0x0001f3    program     static C:\Users\rober\MPLABXProjects\microsexamen2.X\microsexamen21.asm
                    ZERO4   0x000210    program     static C:\Users\rober\MPLABXProjects\microsexamen2.X\microsexamen21.asm
                     ONE4   0x000215    program     static C:\Users\rober\MPLABXProjects\microsexamen2.X\microsexamen21.asm
                     TWO4   0x00021a    program     static C:\Users\rober\MPLABXProjects\microsexamen2.X\microsexamen21.asm
                   THREE4   0x00021f    program     static C:\Users\rober\MPLABXProjects\microsexamen2.X\microsexamen21.asm
                    FOUR4   0x000224    program     static C:\Users\rober\MPLABXProjects\microsexamen2.X\microsexamen21.asm
                    FIVE4   0x000229    program     static C:\Users\rober\MPLABXProjects\microsexamen2.X\microsexamen21.asm
                     SIX4   0x00022e    program     static C:\Users\rober\MPLABXProjects\microsexamen2.X\microsexamen21.asm
                   SEVEN4   0x000233    program     static C:\Users\rober\MPLABXProjects\microsexamen2.X\microsexamen21.asm
                   EIGHT4   0x000238    program     static C:\Users\rober\MPLABXProjects\microsexamen2.X\microsexamen21.asm
                    NINE4   0x00023d    program     static C:\Users\rober\MPLABXProjects\microsexamen2.X\microsexamen21.asm
            check_keypad5   0x000242    program     static C:\Users\rober\MPLABXProjects\microsexamen2.X\microsexamen21.asm
                    ZERO5   0x00025f    program     static C:\Users\rober\MPLABXProjects\microsexamen2.X\microsexamen21.asm
                     ONE5   0x000264    program     static C:\Users\rober\MPLABXProjects\microsexamen2.X\microsexamen21.asm
                     TWO5   0x000269    program     static C:\Users\rober\MPLABXProjects\microsexamen2.X\microsexamen21.asm
                   THREE5   0x00026e    program     static C:\Users\rober\MPLABXProjects\microsexamen2.X\microsexamen21.asm
                    FOUR5   0x000273    program     static C:\Users\rober\MPLABXProjects\microsexamen2.X\microsexamen21.asm
                    FIVE5   0x000278    program     static C:\Users\rober\MPLABXProjects\microsexamen2.X\microsexamen21.asm
                     SIX5   0x00027d    program     static C:\Users\rober\MPLABXProjects\microsexamen2.X\microsexamen21.asm
                   SEVEN5   0x000282    program     static C:\Users\rober\MPLABXProjects\microsexamen2.X\microsexamen21.asm
                   EIGHT5   0x000287    program     static C:\Users\rober\MPLABXProjects\microsexamen2.X\microsexamen21.asm
                    NINE5   0x00028c    program     static C:\Users\rober\MPLABXProjects\microsexamen2.X\microsexamen21.asm
            check_keypad6   0x000291    program     static C:\Users\rober\MPLABXProjects\microsexamen2.X\microsexamen21.asm
                    ZERO6   0x0002ae    program     static C:\Users\rober\MPLABXProjects\microsexamen2.X\microsexamen21.asm
                     ONE6   0x0002b3    program     static C:\Users\rober\MPLABXProjects\microsexamen2.X\microsexamen21.asm
                     TWO6   0x0002b8    program     static C:\Users\rober\MPLABXProjects\microsexamen2.X\microsexamen21.asm
                   THREE6   0x0002bd    program     static C:\Users\rober\MPLABXProjects\microsexamen2.X\microsexamen21.asm
                    FOUR6   0x0002c2    program     static C:\Users\rober\MPLABXProjects\microsexamen2.X\microsexamen21.asm
                    FIVE6   0x0002c7    program     static C:\Users\rober\MPLABXProjects\microsexamen2.X\microsexamen21.asm
                     SIX6   0x0002cc    program     static C:\Users\rober\MPLABXProjects\microsexamen2.X\microsexamen21.asm
                   SEVEN6   0x0002d1    program     static C:\Users\rober\MPLABXProjects\microsexamen2.X\microsexamen21.asm
                   EIGHT6   0x0002d6    program     static C:\Users\rober\MPLABXProjects\microsexamen2.X\microsexamen21.asm
                    NINE6   0x0002db    program     static C:\Users\rober\MPLABXProjects\microsexamen2.X\microsexamen21.asm
            check_keypad7   0x0002e0    program     static C:\Users\rober\MPLABXProjects\microsexamen2.X\microsexamen21.asm
                    ZERO7   0x0002fd    program     static C:\Users\rober\MPLABXProjects\microsexamen2.X\microsexamen21.asm
                     ONE7   0x000302    program     static C:\Users\rober\MPLABXProjects\microsexamen2.X\microsexamen21.asm
                     TWO7   0x000307    program     static C:\Users\rober\MPLABXProjects\microsexamen2.X\microsexamen21.asm
                   THREE7   0x00030c    program     static C:\Users\rober\MPLABXProjects\microsexamen2.X\microsexamen21.asm
                    FOUR7   0x000311    program     static C:\Users\rober\MPLABXProjects\microsexamen2.X\microsexamen21.asm
                    FIVE7   0x000316    program     static C:\Users\rober\MPLABXProjects\microsexamen2.X\microsexamen21.asm
                     SIX7   0x00031b    program     static C:\Users\rober\MPLABXProjects\microsexamen2.X\microsexamen21.asm
                   SEVEN7   0x000320    program     static C:\Users\rober\MPLABXProjects\microsexamen2.X\microsexamen21.asm
                   EIGHT7   0x000325    program     static C:\Users\rober\MPLABXProjects\microsexamen2.X\microsexamen21.asm
                    NINE7   0x00032a    program     static C:\Users\rober\MPLABXProjects\microsexamen2.X\microsexamen21.asm
            check_keypad8   0x00032f    program     static C:\Users\rober\MPLABXProjects\microsexamen2.X\microsexamen21.asm
                    ZERO8   0x00034c    program     static C:\Users\rober\MPLABXProjects\microsexamen2.X\microsexamen21.asm
                     ONE8   0x000351    program     static C:\Users\rober\MPLABXProjects\microsexamen2.X\microsexamen21.asm
                     TWO8   0x000356    program     static C:\Users\rober\MPLABXProjects\microsexamen2.X\microsexamen21.asm
                   THREE8   0x00035b    program     static C:\Users\rober\MPLABXProjects\microsexamen2.X\microsexamen21.asm
                    FOUR8   0x000360    program     static C:\Users\rober\MPLABXProjects\microsexamen2.X\microsexamen21.asm
                    FIVE8   0x000365    program     static C:\Users\rober\MPLABXProjects\microsexamen2.X\microsexamen21.asm
                     SIX8   0x00036a    program     static C:\Users\rober\MPLABXProjects\microsexamen2.X\microsexamen21.asm
                   SEVEN8   0x00036f    program     static C:\Users\rober\MPLABXProjects\microsexamen2.X\microsexamen21.asm
                   EIGHT8   0x000374    program     static C:\Users\rober\MPLABXProjects\microsexamen2.X\microsexamen21.asm
                    NINE8   0x000379    program     static C:\Users\rober\MPLABXProjects\microsexamen2.X\microsexamen21.asm
                 LCDRESET   0x00037e    program     static C:\Users\rober\MPLABXProjects\microsexamen2.X\microsexamen21.asm
                       ON   0x000384    program     static C:\Users\rober\MPLABXProjects\microsexamen2.X\microsexamen21.asm
               REMISEZERO   0x000399    program     static C:\Users\rober\MPLABXProjects\microsexamen2.X\microsexamen21.asm
            display_digit   0x0003ab    program     static C:\Users\rober\MPLABXProjects\microsexamen2.X\microsexamen21.asm
                  DISPLAY   0x0003b5    program     static C:\Users\rober\MPLABXProjects\microsexamen2.X\microsexamen21.asm
                   DELAY1   0x0003bc    program     static C:\Users\rober\MPLABXProjects\microsexamen2.X\microsexamen21.asm
                     LOOP   0x0003c0    program     static C:\Users\rober\MPLABXProjects\microsexamen2.X\microsexamen21.asm
                  segundo   0x0003c7    program     static C:\Users\rober\MPLABXProjects\microsexamen2.X\microsexamen21.asm
               mloopcorto   0x0003ca    program     static C:\Users\rober\MPLABXProjects\microsexamen2.X\microsexamen21.asm
               iloopcorto   0x0003ce    program     static C:\Users\rober\MPLABXProjects\microsexamen2.X\microsexamen21.asm
               jloopcorto   0x0003d1    program     static C:\Users\rober\MPLABXProjects\microsexamen2.X\microsexamen21.asm
               kloopcorto   0x0003d3    program     static C:\Users\rober\MPLABXProjects\microsexamen2.X\microsexamen21.asm


